target datalayout = "e-m:e-p270:32:32-p271:32:32-p272:64:64-i64:64-i128:128-f80:128-n8:16:32:64-S128"
target triple = "x86_64-pc-linux-gnu"

%struct.mod_exp_test_st = type { ptr, ptr, ptr, ptr }

@.str.17 = private unnamed_addr constant [25 x i8] c"../openssl/test/bntest.c\00", align 1
@ctx = internal global ptr null, align 8
@.str.123 = private unnamed_addr constant [2 x i8] c"1\00", align 1
@.str.551 = private unnamed_addr constant [2 x i8] c"s\00", align 1
@.str.566 = private unnamed_addr constant [18 x i8] c"result = BN_new()\00", align 1
@.str.567 = private unnamed_addr constant [29 x i8] c"BN_dec2bn(&base, test->base)\00", align 1
@.str.568 = private unnamed_addr constant [32 x i8] c"BN_dec2bn(&exponent, test->exp)\00", align 1
@.str.569 = private unnamed_addr constant [30 x i8] c"BN_dec2bn(&modulo, test->mod)\00", align 1
@.str.570 = private unnamed_addr constant [48 x i8] c"BN_mod_exp(result, base, exponent, modulo, ctx)\00", align 1
@.str.571 = private unnamed_addr constant [22 x i8] c"s = BN_bn2dec(result)\00", align 1
@.str.572 = private unnamed_addr constant [10 x i8] c"test->res\00", align 1

; Function Attrs: nounwind uwtable
define internal i32 @test_mod_exp_consttime(i32 noundef %0) #0 {
  %2 = alloca i32, align 4
  %3 = alloca ptr, align 8
  %4 = alloca i32, align 4
  %5 = alloca ptr, align 8
  %6 = alloca ptr, align 8
  %7 = alloca ptr, align 8
  %8 = alloca ptr, align 8
  %9 = alloca ptr, align 8
  store i32 %0, ptr %2, align 4, !tbaa !4
  call void @llvm.lifetime.start.p0(i64 8, ptr %3) #7
  %10 = load i32, ptr %2, align 4, !tbaa !4
  %11 = sext i32 %10 to i64
  %12 = getelementptr inbounds [16 x %struct.mod_exp_test_st], ptr @ModExpTests, i64 0, i64 %11
  store ptr %12, ptr %3, align 8, !tbaa !62
  call void @llvm.lifetime.start.p0(i64 4, ptr %4) #7
  store i32 0, ptr %4, align 4, !tbaa !4
  call void @llvm.lifetime.start.p0(i64 8, ptr %5) #7
  store ptr null, ptr %5, align 8, !tbaa !13
  call void @llvm.lifetime.start.p0(i64 8, ptr %6) #7
  store ptr null, ptr %6, align 8, !tbaa !13
  call void @llvm.lifetime.start.p0(i64 8, ptr %7) #7
  store ptr null, ptr %7, align 8, !tbaa !13
  call void @llvm.lifetime.start.p0(i64 8, ptr %8) #7
  store ptr null, ptr %8, align 8, !tbaa !13
  call void @llvm.lifetime.start.p0(i64 8, ptr %9) #7
  store ptr null, ptr %9, align 8, !tbaa !25
  %13 = call ptr @BN_new()
  store ptr %13, ptr %5, align 8, !tbaa !13
  %14 = call i32 @test_ptr(ptr noundef @.str.17, i32 noundef 3101, ptr noundef @.str.566, ptr noundef %13)
  %15 = icmp ne i32 %14, 0
  br i1 %15, label %16, label %43

16:                                               ; preds = %1
  %17 = load ptr, ptr %3, align 8, !tbaa !62
  %18 = getelementptr inbounds nuw %struct.mod_exp_test_st, ptr %17, i32 0, i32 0
  %19 = load ptr, ptr %18, align 8, !tbaa !64
  %20 = call i32 @BN_dec2bn(ptr noundef %6, ptr noundef %19)
  %21 = icmp ne i32 %20, 0
  %22 = zext i1 %21 to i32
  %23 = call i32 @test_true(ptr noundef @.str.17, i32 noundef 3102, ptr noundef @.str.567, i32 noundef %22)
  %24 = icmp ne i32 %23, 0
  br i1 %24, label %25, label %43

25:                                               ; preds = %16
  %26 = load ptr, ptr %3, align 8, !tbaa !62
  %27 = getelementptr inbounds nuw %struct.mod_exp_test_st, ptr %26, i32 0, i32 1
  %28 = load ptr, ptr %27, align 8, !tbaa !66
  %29 = call i32 @BN_dec2bn(ptr noundef %7, ptr noundef %28)
  %30 = icmp ne i32 %29, 0
  %31 = zext i1 %30 to i32
  %32 = call i32 @test_true(ptr noundef @.str.17, i32 noundef 3103, ptr noundef @.str.568, i32 noundef %31)
  %33 = icmp ne i32 %32, 0
  br i1 %33, label %34, label %43

34:                                               ; preds = %25
  %35 = load ptr, ptr %3, align 8, !tbaa !62
  %36 = getelementptr inbounds nuw %struct.mod_exp_test_st, ptr %35, i32 0, i32 2
  %37 = load ptr, ptr %36, align 8, !tbaa !67
  %38 = call i32 @BN_dec2bn(ptr noundef %8, ptr noundef %37)
  %39 = icmp ne i32 %38, 0
  %40 = zext i1 %39 to i32
  %41 = call i32 @test_true(ptr noundef @.str.17, i32 noundef 3104, ptr noundef @.str.569, i32 noundef %40)
  %42 = icmp ne i32 %41, 0
  br i1 %42, label %44, label %43

43:                                               ; preds = %34, %25, %16, %1
  br label %78

44:                                               ; preds = %34
  %45 = load ptr, ptr %6, align 8, !tbaa !13
  call void @BN_set_flags(ptr noundef %45, i32 noundef 4)
  %46 = load ptr, ptr %7, align 8, !tbaa !13
  call void @BN_set_flags(ptr noundef %46, i32 noundef 4)
  %47 = load ptr, ptr %8, align 8, !tbaa !13
  call void @BN_set_flags(ptr noundef %47, i32 noundef 4)
  %48 = load ptr, ptr %5, align 8, !tbaa !13
  %49 = load ptr, ptr %6, align 8, !tbaa !13
  %50 = load ptr, ptr %7, align 8, !tbaa !13
  %51 = load ptr, ptr %8, align 8, !tbaa !13
  %52 = load ptr, ptr @ctx, align 8, !tbaa !10
  %53 = call i32 @BN_mod_exp(ptr noundef %48, ptr noundef %49, ptr noundef %50, ptr noundef %51, ptr noundef %52)
  %54 = call i32 @test_int_eq(ptr noundef @.str.17, i32 noundef 3111, ptr noundef @.str.570, ptr noundef @.str.123, i32 noundef %53, i32 noundef 1)
  %55 = icmp ne i32 %54, 0
  br i1 %55, label %57, label %56

56:                                               ; preds = %44
  br label %78

57:                                               ; preds = %44
  %58 = load ptr, ptr %5, align 8, !tbaa !13
  %59 = call ptr @BN_bn2dec(ptr noundef %58)
  store ptr %59, ptr %9, align 8, !tbaa !25
  %60 = call i32 @test_ptr(ptr noundef @.str.17, i32 noundef 3114, ptr noundef @.str.571, ptr noundef %59)
  %61 = icmp ne i32 %60, 0
  br i1 %61, label %63, label %62

62:                                               ; preds = %57
  br label %78

63:                                               ; preds = %57
  %64 = load ptr, ptr %9, align 8, !tbaa !25
  %65 = load ptr, ptr %9, align 8, !tbaa !25
  %66 = call i64 @strlen(ptr noundef %65) #8
  %67 = load ptr, ptr %3, align 8, !tbaa !62
  %68 = getelementptr inbounds nuw %struct.mod_exp_test_st, ptr %67, i32 0, i32 3
  %69 = load ptr, ptr %68, align 8, !tbaa !68
  %70 = load ptr, ptr %3, align 8, !tbaa !62
  %71 = getelementptr inbounds nuw %struct.mod_exp_test_st, ptr %70, i32 0, i32 3
  %72 = load ptr, ptr %71, align 8, !tbaa !68
  %73 = call i64 @strlen(ptr noundef %72) #8
  %74 = call i32 @test_mem_eq(ptr noundef @.str.17, i32 noundef 3117, ptr noundef @.str.551, ptr noundef @.str.572, ptr noundef %64, i64 noundef %66, ptr noundef %69, i64 noundef %73)
  %75 = icmp ne i32 %74, 0
  br i1 %75, label %77, label %76

76:                                               ; preds = %63
  br label %78

77:                                               ; preds = %63
  store i32 1, ptr %4, align 4, !tbaa !4
  br label %78

78:                                               ; preds = %77, %76, %62, %56, %43
  %79 = load ptr, ptr %9, align 8, !tbaa !25
  call void @CRYPTO_free(ptr noundef %79, ptr noundef @.str.17, i32 noundef 3123)
  %80 = load ptr, ptr %5, align 8, !tbaa !13
  call void @BN_free(ptr noundef %80)
  %81 = load ptr, ptr %6, align 8, !tbaa !13
  call void @BN_free(ptr noundef %81)
  %82 = load ptr, ptr %7, align 8, !tbaa !13
  call void @BN_free(ptr noundef %82)
  %83 = load ptr, ptr %8, align 8, !tbaa !13
  call void @BN_free(ptr noundef %83)
  %84 = load i32, ptr %4, align 4, !tbaa !4
  call void @llvm.lifetime.end.p0(i64 8, ptr %9) #7
  call void @llvm.lifetime.end.p0(i64 8, ptr %8) #7
  call void @llvm.lifetime.end.p0(i64 8, ptr %7) #7
  call void @llvm.lifetime.end.p0(i64 8, ptr %6) #7
  call void @llvm.lifetime.end.p0(i64 8, ptr %5) #7
  call void @llvm.lifetime.end.p0(i64 4, ptr %4) #7
  call void @llvm.lifetime.end.p0(i64 8, ptr %3) #7
  ret i32 %84
}