; Function Attrs: nounwind uwtable
define internal range(i32 0, 2) i32 @test_mod_exp_consttime(i32 noundef %0) #1 {
  %2 = alloca ptr, align 8
  %3 = alloca ptr, align 8
  %4 = alloca ptr, align 8
  %5 = sext i32 %0 to i64
  %6 = getelementptr inbounds [16 x %struct.mod_exp_test_st], ptr @ModExpTests, i64 0, i64 %5
  call void @llvm.lifetime.start.p0(i64 8, ptr nonnull %2) #8
  store ptr null, ptr %2, align 8, !tbaa !21
  call void @llvm.lifetime.start.p0(i64 8, ptr nonnull %3) #8
  store ptr null, ptr %3, align 8, !tbaa !21
  call void @llvm.lifetime.start.p0(i64 8, ptr nonnull %4) #8
  store ptr null, ptr %4, align 8, !tbaa !21
  %7 = tail call ptr @BN_new() #8
  %8 = tail call i32 @test_ptr(ptr noundef nonnull @.str.17, i32 noundef 3101, ptr noundef nonnull @.str.566, ptr noundef %7) #8
  %.not = icmp eq i32 %8, 0
  br i1 %.not, label %48, label %9

9:                                                ; preds = %1
  %10 = load ptr, ptr %6, align 16, !tbaa !56
  %11 = call i32 @BN_dec2bn(ptr noundef nonnull %2, ptr noundef %10) #8
  %12 = icmp ne i32 %11, 0
  %13 = zext i1 %12 to i32
  %14 = call i32 @test_true(ptr noundef nonnull @.str.17, i32 noundef 3102, ptr noundef nonnull @.str.567, i32 noundef %13) #8
  %.not13 = icmp eq i32 %14, 0
  br i1 %.not13, label %48, label %15

15:                                               ; preds = %9
  %16 = getelementptr inbounds nuw i8, ptr %6, i64 8
  %17 = load ptr, ptr %16, align 8, !tbaa !58
  %18 = call i32 @BN_dec2bn(ptr noundef nonnull %3, ptr noundef %17) #8
  %19 = icmp ne i32 %18, 0
  %20 = zext i1 %19 to i32
  %21 = call i32 @test_true(ptr noundef nonnull @.str.17, i32 noundef 3103, ptr noundef nonnull @.str.568, i32 noundef %20) #8
  %.not14 = icmp eq i32 %21, 0
  br i1 %.not14, label %48, label %22

22:                                               ; preds = %15
  %23 = getelementptr inbounds nuw i8, ptr %6, i64 16
  %24 = load ptr, ptr %23, align 16, !tbaa !59
  %25 = call i32 @BN_dec2bn(ptr noundef nonnull %4, ptr noundef %24) #8
  %26 = icmp ne i32 %25, 0
  %27 = zext i1 %26 to i32
  %28 = call i32 @test_true(ptr noundef nonnull @.str.17, i32 noundef 3104, ptr noundef nonnull @.str.569, i32 noundef %27) #8
  %.not15 = icmp eq i32 %28, 0
  br i1 %.not15, label %48, label %29

29:                                               ; preds = %22
  %30 = load ptr, ptr %2, align 8, !tbaa !21
  call void @BN_set_flags(ptr noundef %30, i32 noundef 4) #8
  %31 = load ptr, ptr %3, align 8, !tbaa !21
  call void @BN_set_flags(ptr noundef %31, i32 noundef 4) #8
  %32 = load ptr, ptr %4, align 8, !tbaa !21
  call void @BN_set_flags(ptr noundef %32, i32 noundef 4) #8
  %33 = load ptr, ptr %2, align 8, !tbaa !21
  %34 = load ptr, ptr %3, align 8, !tbaa !21
  %35 = load ptr, ptr %4, align 8, !tbaa !21
  %36 = load ptr, ptr @ctx, align 8, !tbaa !6
  %37 = call i32 @BN_mod_exp(ptr noundef %7, ptr noundef %33, ptr noundef %34, ptr noundef %35, ptr noundef %36) #8
  %38 = call i32 @test_int_eq(ptr noundef nonnull @.str.17, i32 noundef 3111, ptr noundef nonnull @.str.570, ptr noundef nonnull @.str.123, i32 noundef %37, i32 noundef 1) #8
  %.not16 = icmp eq i32 %38, 0
  br i1 %.not16, label %48, label %39

39:                                               ; preds = %29
  %40 = call ptr @BN_bn2dec(ptr noundef %7) #8
  %41 = call i32 @test_ptr(ptr noundef nonnull @.str.17, i32 noundef 3114, ptr noundef nonnull @.str.571, ptr noundef %40) #8
  %.not17 = icmp eq i32 %41, 0
  br i1 %.not17, label %48, label %42

42:                                               ; preds = %39
  %43 = call i64 @strlen(ptr noundef nonnull dereferenceable(1) %40) #9
  %44 = getelementptr inbounds nuw i8, ptr %6, i64 24
  %45 = load ptr, ptr %44, align 8, !tbaa !60
  %46 = call i64 @strlen(ptr noundef nonnull dereferenceable(1) %45) #9
  %47 = call i32 @test_mem_eq(ptr noundef nonnull @.str.17, i32 noundef 3117, ptr noundef nonnull @.str.551, ptr noundef nonnull @.str.572, ptr noundef nonnull %40, i64 noundef %43, ptr noundef nonnull %45, i64 noundef %46) #8
  %.not18 = icmp ne i32 %47, 0
  %spec.select = zext i1 %.not18 to i32
  br label %48

48:                                               ; preds = %42, %39, %29, %1, %9, %15, %22
  %.012 = phi i32 [ 0, %39 ], [ 0, %29 ], [ 0, %22 ], [ 0, %15 ], [ 0, %9 ], [ 0, %1 ], [ %spec.select, %42 ]
  %.0 = phi ptr [ %40, %39 ], [ null, %29 ], [ null, %22 ], [ null, %15 ], [ null, %9 ], [ null, %1 ], [ %40, %42 ]
  call void @CRYPTO_free(ptr noundef %.0, ptr noundef nonnull @.str.17, i32 noundef 3123) #8
  call void @BN_free(ptr noundef %7) #8
  %49 = load ptr, ptr %2, align 8, !tbaa !21
  call void @BN_free(ptr noundef %49) #8
  %50 = load ptr, ptr %3, align 8, !tbaa !21
  call void @BN_free(ptr noundef %50) #8
  %51 = load ptr, ptr %4, align 8, !tbaa !21
  call void @BN_free(ptr noundef %51) #8
  call void @llvm.lifetime.end.p0(i64 8, ptr nonnull %4) #8
  call void @llvm.lifetime.end.p0(i64 8, ptr nonnull %3) #8
  call void @llvm.lifetime.end.p0(i64 8, ptr nonnull %2) #8
  ret i32 %.012
}